target datalayout = "e-m:e-p270:32:32-p271:32:32-p272:64:64-i64:64-i128:128-f80:128-n8:16:32:64-S128"
target triple = "x86_64-pc-linux-gnu"

%struct.stat = type { i64, i64, i64, i32, i32, i32, i32, i64, i64, i64, i64, %struct.timespec, %struct.timespec, %struct.timespec, [3 x i64] }
%struct.timespec = type { i64, i64 }

@XLogArchiveMode = external global i32, align 4
@.str.13 = private unnamed_addr constant [7 x i8] c".ready\00", align 1
@.str.17 = private unnamed_addr constant [6 x i8] c".done\00", align 1
@.str.19 = private unnamed_addr constant [27 x i8] c"pg_wal/archive_status/%s%s\00", align 1

; Function Attrs: inlinehint nounwind uwtable
define internal void @StatusFilePath(ptr noundef %0, ptr noundef %1, ptr noundef %2) #7 {
  %4 = alloca ptr, align 8
  %5 = alloca ptr, align 8
  %6 = alloca ptr, align 8
  store ptr %0, ptr %4, align 8
  store ptr %1, ptr %5, align 8
  store ptr %2, ptr %6, align 8
  %7 = load ptr, ptr %4, align 8
  %8 = load ptr, ptr %5, align 8
  %9 = load ptr, ptr %6, align 8
  %10 = call i32 (ptr, i64, ptr, ...) @pg_snprintf(ptr noundef %7, i64 noundef 1024, ptr noundef @.str.19, ptr noundef %8, ptr noundef %9)
  ret void
}

; Function Attrs: nounwind uwtable
define dso_local zeroext i1 @XLogArchiveCheckDone(ptr noundef %0) #0 {
  %2 = alloca i1, align 1
  %3 = alloca ptr, align 8
  %4 = alloca [1024 x i8], align 16
  %5 = alloca %struct.stat, align 8
  %6 = alloca i32, align 4
  store ptr %0, ptr %3, align 8
  call void @llvm.lifetime.start.p0(i64 1024, ptr %4) #10
  call void @llvm.lifetime.start.p0(i64 144, ptr %5) #10
  %7 = load i32, ptr @XLogArchiveMode, align 4
  %8 = icmp sgt i32 %7, 0
  br i1 %8, label %10, label %9

9:                                                ; preds = %1
  store i1 true, ptr %2, align 1
  store i32 1, ptr %6, align 4
  br label %40

10:                                               ; preds = %1
  %11 = load i32, ptr @XLogArchiveMode, align 4
  %12 = icmp eq i32 %11, 2
  br i1 %12, label %17, label %13

13:                                               ; preds = %10
  %14 = call i32 @GetRecoveryState()
  %15 = icmp eq i32 %14, 1
  br i1 %15, label %16, label %17

16:                                               ; preds = %13
  store i1 true, ptr %2, align 1
  store i32 1, ptr %6, align 4
  br label %40

17:                                               ; preds = %13, %10
  %18 = getelementptr inbounds [1024 x i8], ptr %4, i64 0, i64 0
  %19 = load ptr, ptr %3, align 8
  call void @StatusFilePath(ptr noundef %18, ptr noundef %19, ptr noundef @.str.17)
  %20 = getelementptr inbounds [1024 x i8], ptr %4, i64 0, i64 0
  %21 = call i32 @stat(ptr noundef %20, ptr noundef %5) #10
  %22 = icmp eq i32 %21, 0
  br i1 %22, label %23, label %24

23:                                               ; preds = %17
  store i1 true, ptr %2, align 1
  store i32 1, ptr %6, align 4
  br label %40

24:                                               ; preds = %17
  %25 = getelementptr inbounds [1024 x i8], ptr %4, i64 0, i64 0
  %26 = load ptr, ptr %3, align 8
  call void @StatusFilePath(ptr noundef %25, ptr noundef %26, ptr noundef @.str.13)
  %27 = getelementptr inbounds [1024 x i8], ptr %4, i64 0, i64 0
  %28 = call i32 @stat(ptr noundef %27, ptr noundef %5) #10
  %29 = icmp eq i32 %28, 0
  br i1 %29, label %30, label %31

30:                                               ; preds = %24
  store i1 false, ptr %2, align 1
  store i32 1, ptr %6, align 4
  br label %40

31:                                               ; preds = %24
  %32 = getelementptr inbounds [1024 x i8], ptr %4, i64 0, i64 0
  %33 = load ptr, ptr %3, align 8
  call void @StatusFilePath(ptr noundef %32, ptr noundef %33, ptr noundef @.str.17)
  %34 = getelementptr inbounds [1024 x i8], ptr %4, i64 0, i64 0
  %35 = call i32 @stat(ptr noundef %34, ptr noundef %5) #10
  %36 = icmp eq i32 %35, 0
  br i1 %36, label %37, label %38

37:                                               ; preds = %31
  store i1 true, ptr %2, align 1
  store i32 1, ptr %6, align 4
  br label %40

38:                                               ; preds = %31
  %39 = load ptr, ptr %3, align 8
  call void @XLogArchiveNotify(ptr noundef %39)
  store i1 false, ptr %2, align 1
  store i32 1, ptr %6, align 4
  br label %40

40:                                               ; preds = %38, %37, %30, %23, %16, %9
  call void @llvm.lifetime.end.p0(i64 144, ptr %5) #10
  call void @llvm.lifetime.end.p0(i64 1024, ptr %4) #10
  %41 = load i1, ptr %2, align 1
  ret i1 %41
}