; Function Attrs: nounwind uwtable
define dso_local noundef zeroext i1 @XLogArchiveCheckDone(ptr noundef %0) local_unnamed_addr #0 {
  %2 = alloca [1024 x i8], align 16
  %3 = alloca %struct.stat, align 8
  call void @llvm.lifetime.start.p0(i64 1024, ptr nonnull %2) #11
  call void @llvm.lifetime.start.p0(i64 144, ptr nonnull %3) #11
  %4 = load i32, ptr @XLogArchiveMode, align 4
  %5 = icmp sgt i32 %4, 0
  br i1 %5, label %6, label %24

6:                                                ; preds = %1
  %7 = icmp eq i32 %4, 2
  br i1 %7, label %11, label %8

8:                                                ; preds = %6
  %9 = tail call i32 @GetRecoveryState() #11
  %10 = icmp eq i32 %9, 1
  br i1 %10, label %24, label %11

11:                                               ; preds = %8, %6
  %12 = call i32 (ptr, i64, ptr, ...) @pg_snprintf(ptr noundef nonnull %2, i64 noundef 1024, ptr noundef nonnull @.str.19, ptr noundef %0, ptr noundef nonnull @.str.17) #11
  %13 = call i32 @stat(ptr noundef nonnull %2, ptr noundef nonnull %3) #11
  %14 = icmp eq i32 %13, 0
  br i1 %14, label %24, label %15

15:                                               ; preds = %11
  %16 = call i32 (ptr, i64, ptr, ...) @pg_snprintf(ptr noundef nonnull %2, i64 noundef 1024, ptr noundef nonnull @.str.19, ptr noundef %0, ptr noundef nonnull @.str.13) #11
  %17 = call i32 @stat(ptr noundef nonnull %2, ptr noundef nonnull %3) #11
  %18 = icmp eq i32 %17, 0
  br i1 %18, label %24, label %19

19:                                               ; preds = %15
  %20 = call i32 (ptr, i64, ptr, ...) @pg_snprintf(ptr noundef nonnull %2, i64 noundef 1024, ptr noundef nonnull @.str.19, ptr noundef %0, ptr noundef nonnull @.str.17) #11
  %21 = call i32 @stat(ptr noundef nonnull %2, ptr noundef nonnull %3) #11
  %22 = icmp eq i32 %21, 0
  br i1 %22, label %24, label %23

23:                                               ; preds = %19
  call void @XLogArchiveNotify(ptr noundef %0)
  br label %24

24:                                               ; preds = %19, %15, %11, %8, %1, %23
  %.0 = phi i1 [ false, %23 ], [ true, %1 ], [ true, %8 ], [ true, %11 ], [ false, %15 ], [ true, %19 ]
  call void @llvm.lifetime.end.p0(i64 144, ptr nonnull %3) #11
  call void @llvm.lifetime.end.p0(i64 1024, ptr nonnull %2) #11
  ret i1 %.0
}